target datalayout = "e-m:e-p270:32:32-p271:32:32-p272:64:64-i64:64-i128:128-f80:128-n8:16:32:64-S128"
target triple = "x86_64-pc-linux-gnu"

%class.OSThread = type <{ i32, i32, i64, %struct.__sigset_t, %class.SuspendResume, [4 x i8], ptr, ptr, i32, [4 x i8], ptr, ptr, i32, [4 x i8] }>
%struct.__sigset_t = type { [16 x i64] }
%class.SuspendResume = type { i32 }

@.str = private unnamed_addr constant [9 x i8] c"nid=%lu \00", align 1
@.str.4 = private unnamed_addr constant [11 x i8] c"allocated \00", align 1
@.str.5 = private unnamed_addr constant [13 x i8] c"initialized \00", align 1
@.str.6 = private unnamed_addr constant [10 x i8] c"runnable \00", align 1
@.str.7 = private unnamed_addr constant [27 x i8] c"waiting for monitor entry \00", align 1
@.str.8 = private unnamed_addr constant [22 x i8] c"waiting on condition \00", align 1
@.str.9 = private unnamed_addr constant [18 x i8] c"in Object.wait() \00", align 1
@.str.10 = private unnamed_addr constant [14 x i8] c"at breakpoint\00", align 1
@.str.11 = private unnamed_addr constant [9 x i8] c"sleeping\00", align 1
@.str.12 = private unnamed_addr constant [7 x i8] c"zombie\00", align 1
@.str.13 = private unnamed_addr constant [17 x i8] c"unknown state %d\00", align 1

; Function Attrs: mustprogress nounwind uwtable
define linkonce_odr hidden noundef i32 @_ZNK8OSThread9thread_idEv(ptr noundef nonnull align 8 dereferenceable(196) %0) #1 comdat align 2 {
  %2 = alloca ptr, align 8
  store ptr %0, ptr %2, align 8
  %3 = load ptr, ptr %2, align 8
  %4 = getelementptr inbounds %class.OSThread, ptr %3, i32 0, i32 12
  %5 = load i32, ptr %4, align 8
  ret i32 %5
}

; Function Attrs: mustprogress nounwind uwtable
define hidden void @_ZNK8OSThread8print_onEP12outputStream(ptr noundef nonnull align 8 dereferenceable(196) %0, ptr noundef %1) #1 align 2 {
  %3 = alloca ptr, align 8
  %4 = alloca ptr, align 8
  store ptr %0, ptr %3, align 8
  store ptr %1, ptr %4, align 8
  %5 = load ptr, ptr %3, align 8
  %6 = load ptr, ptr %4, align 8
  %7 = call noundef i32 @_ZNK8OSThread9thread_idEv(ptr noundef nonnull align 8 dereferenceable(196) %5)
  %8 = sext i32 %7 to i64
  call void (ptr, ptr, ...) @_ZN12outputStream5printEPKcz(ptr noundef nonnull align 8 dereferenceable(56) %6, ptr noundef @.str, i64 noundef %8)
  %9 = getelementptr inbounds %class.OSThread, ptr %5, i32 0, i32 0
  %10 = load volatile i32, ptr %9, align 8
  switch i32 %10, label %29 [
    i32 0, label %11
    i32 1, label %13
    i32 2, label %15
    i32 3, label %17
    i32 4, label %19
    i32 5, label %21
    i32 6, label %23
    i32 7, label %25
    i32 8, label %27
  ]

11:                                               ; preds = %2
  %12 = load ptr, ptr %4, align 8
  call void (ptr, ptr, ...) @_ZN12outputStream5printEPKcz(ptr noundef nonnull align 8 dereferenceable(56) %12, ptr noundef @.str.4)
  br label %33

13:                                               ; preds = %2
  %14 = load ptr, ptr %4, align 8
  call void (ptr, ptr, ...) @_ZN12outputStream5printEPKcz(ptr noundef nonnull align 8 dereferenceable(56) %14, ptr noundef @.str.5)
  br label %33

15:                                               ; preds = %2
  %16 = load ptr, ptr %4, align 8
  call void (ptr, ptr, ...) @_ZN12outputStream5printEPKcz(ptr noundef nonnull align 8 dereferenceable(56) %16, ptr noundef @.str.6)
  br label %33

17:                                               ; preds = %2
  %18 = load ptr, ptr %4, align 8
  call void (ptr, ptr, ...) @_ZN12outputStream5printEPKcz(ptr noundef nonnull align 8 dereferenceable(56) %18, ptr noundef @.str.7)
  br label %33

19:                                               ; preds = %2
  %20 = load ptr, ptr %4, align 8
  call void (ptr, ptr, ...) @_ZN12outputStream5printEPKcz(ptr noundef nonnull align 8 dereferenceable(56) %20, ptr noundef @.str.8)
  br label %33

21:                                               ; preds = %2
  %22 = load ptr, ptr %4, align 8
  call void (ptr, ptr, ...) @_ZN12outputStream5printEPKcz(ptr noundef nonnull align 8 dereferenceable(56) %22, ptr noundef @.str.9)
  br label %33

23:                                               ; preds = %2
  %24 = load ptr, ptr %4, align 8
  call void (ptr, ptr, ...) @_ZN12outputStream5printEPKcz(ptr noundef nonnull align 8 dereferenceable(56) %24, ptr noundef @.str.10)
  br label %33

25:                                               ; preds = %2
  %26 = load ptr, ptr %4, align 8
  call void (ptr, ptr, ...) @_ZN12outputStream5printEPKcz(ptr noundef nonnull align 8 dereferenceable(56) %26, ptr noundef @.str.11)
  br label %33

27:                                               ; preds = %2
  %28 = load ptr, ptr %4, align 8
  call void (ptr, ptr, ...) @_ZN12outputStream5printEPKcz(ptr noundef nonnull align 8 dereferenceable(56) %28, ptr noundef @.str.12)
  br label %33

29:                                               ; preds = %2
  %30 = load ptr, ptr %4, align 8
  %31 = getelementptr inbounds %class.OSThread, ptr %5, i32 0, i32 0
  %32 = load volatile i32, ptr %31, align 8
  call void (ptr, ptr, ...) @_ZN12outputStream5printEPKcz(ptr noundef nonnull align 8 dereferenceable(56) %30, ptr noundef @.str.13, i32 noundef %32)
  br label %33

33:                                               ; preds = %29, %27, %25, %23, %21, %19, %17, %15, %13, %11
  ret void
}